; Function Attrs: mustprogress uwtable
define internal fastcc void @_ZN5Yosys5RTLILL9escape_idERKNSt7__cxx1112basic_stringIcSt11char_traitsIcESaIcEEE(ptr dead_on_unwind noalias writable align 8 %0, ptr noundef nonnull align 8 dereferenceable(32) %1) unnamed_addr #4 {
  %3 = tail call noundef i64 @_ZNKSt7__cxx1112basic_stringIcSt11char_traitsIcESaIcEE4sizeEv(ptr noundef nonnull align 8 dereferenceable(32) %1) #23
  %.not = icmp eq i64 %3, 0
  br i1 %.not, label %11, label %4

4:                                                ; preds = %2
  %5 = tail call noundef nonnull align 1 dereferenceable(1) ptr @_ZNKSt7__cxx1112basic_stringIcSt11char_traitsIcESaIcEEixEm(ptr noundef nonnull align 8 dereferenceable(32) %1, i64 noundef 0) #23
  %6 = load i8, ptr %5, align 1
  %.not5 = icmp eq i8 %6, 92
  br i1 %.not5, label %11, label %7

7:                                                ; preds = %4
  %8 = tail call noundef nonnull align 1 dereferenceable(1) ptr @_ZNKSt7__cxx1112basic_stringIcSt11char_traitsIcESaIcEEixEm(ptr noundef nonnull align 8 dereferenceable(32) %1, i64 noundef 0) #23
  %9 = load i8, ptr %8, align 1
  %.not6 = icmp eq i8 %9, 36
  br i1 %.not6, label %11, label %10

10:                                               ; preds = %7
  tail call void @_ZStplIcSt11char_traitsIcESaIcEENSt7__cxx1112basic_stringIT_T0_T1_EEPKS5_RKS8_(ptr dead_on_unwind writable sret(%"class.std::__cxx11::basic_string") align 8 %0, ptr noundef nonnull @.str.93, ptr noundef nonnull align 8 dereferenceable(32) %1)
  br label %12

11:                                               ; preds = %7, %4, %2
  tail call void @_ZNSt7__cxx1112basic_stringIcSt11char_traitsIcESaIcEEC1ERKS4_(ptr noundef nonnull align 8 dereferenceable(32) %0, ptr noundef nonnull align 8 dereferenceable(32) %1)
  br label %12

12:                                               ; preds = %11, %10
  ret void
}